target datalayout = "e-m:e-p270:32:32-p271:32:32-p272:64:64-i64:64-i128:128-f80:128-n8:16:32:64-S128"
target triple = "x86_64-pc-linux-gnu"

; Function Attrs: nounwind uwtable
define hidden i64 @zbee_parse_eui64(ptr noundef %0, i32 noundef %1, ptr noundef %2, ptr noundef %3, i32 noundef %4, ptr noundef %5) #0 {
  %7 = alloca ptr, align 8
  %8 = alloca i32, align 4
  %9 = alloca ptr, align 8
  %10 = alloca ptr, align 8
  %11 = alloca i32, align 4
  %12 = alloca ptr, align 8
  %13 = alloca ptr, align 8
  %14 = alloca i64, align 8
  store ptr %0, ptr %7, align 8
  store i32 %1, ptr %8, align 4
  store ptr %2, ptr %9, align 8
  store ptr %3, ptr %10, align 8
  store i32 %4, ptr %11, align 4
  store ptr %5, ptr %12, align 8
  store ptr null, ptr %13, align 8
  %15 = load ptr, ptr %9, align 8
  %16 = load ptr, ptr %10, align 8
  %17 = load i32, ptr %16, align 4
  %18 = call i64 @tvb_get_letoh64(ptr noundef %15, i32 noundef %17)
  store i64 %18, ptr %14, align 8
  %19 = load ptr, ptr %7, align 8
  %20 = load i32, ptr %8, align 4
  %21 = load ptr, ptr %9, align 8
  %22 = load ptr, ptr %10, align 8
  %23 = load i32, ptr %22, align 4
  %24 = load i32, ptr %11, align 4
  %25 = load i64, ptr %14, align 8
  %26 = call ptr @proto_tree_add_eui64(ptr noundef %19, i32 noundef %20, ptr noundef %21, i32 noundef %23, i32 noundef %24, i64 noundef %25)
  store ptr %26, ptr %13, align 8
  %27 = load ptr, ptr %10, align 8
  %28 = load i32, ptr %27, align 4
  %29 = add i32 %28, 8
  store i32 %29, ptr %27, align 4
  %30 = load ptr, ptr %12, align 8
  %31 = icmp ne ptr %30, null
  br i1 %31, label %32, label %35

32:                                               ; preds = %6
  %33 = load ptr, ptr %13, align 8
  %34 = load ptr, ptr %12, align 8
  store ptr %33, ptr %34, align 8
  br label %35

35:                                               ; preds = %32, %6
  %36 = load i64, ptr %14, align 8
  ret i64 %36
}