; Function Attrs: nounwind uwtable
define hidden noundef i64 @zbee_parse_eui64(ptr noundef %0, i32 noundef %1, ptr noundef %2, ptr noundef captures(none) %3, i32 noundef %4, ptr noundef writeonly %5) local_unnamed_addr #0 {
  %7 = load i32, ptr %3, align 4
  %8 = tail call i64 @tvb_get_letoh64(ptr noundef %2, i32 noundef %7) #4
  %9 = load i32, ptr %3, align 4
  %10 = tail call ptr @proto_tree_add_eui64(ptr noundef %0, i32 noundef %1, ptr noundef %2, i32 noundef %9, i32 noundef %4, i64 noundef %8) #4
  %11 = load i32, ptr %3, align 4
  %12 = add i32 %11, 8
  store i32 %12, ptr %3, align 4
  %.not = icmp eq ptr %5, null
  br i1 %.not, label %14, label %13

13:                                               ; preds = %6
  store ptr %10, ptr %5, align 8
  br label %14

14:                                               ; preds = %13, %6
  ret i64 %8
}